target datalayout = "e-m:e-p270:32:32-p271:32:32-p272:64:64-i64:64-f80:128-n8:16:32:64-S128"
target triple = "x86_64-pc-linux-gnu"

@.str = private unnamed_addr constant [3 x i8] c"%d\00", align 1
@.str.1 = private unnamed_addr constant [6 x i8] c"%s %s\00", align 1
@.str.2 = private unnamed_addr constant [3 x i8] c"%c\00", align 1
@.str.3 = private unnamed_addr constant [2 x i8] c"\0A\00", align 1

; Function Attrs: noinline nounwind uwtable
define dso_local void @main() #0 {
  %1 = alloca i32, align 4
  %2 = alloca i32, align 4
  %3 = alloca i32, align 4
  %4 = alloca i32, align 4
  %5 = alloca i32, align 4
  %6 = alloca [100 x i8], align 16
  %7 = alloca [100 x i8], align 16
  %8 = alloca [100 x i8], align 16
  %9 = alloca i8, align 1
  %10 = call i32 (i8*, ...) @__isoc99_scanf(i8* getelementptr inbounds ([3 x i8], [3 x i8]* @.str, i64 0, i64 0), i32* %1)
  store i32 0, i32* %2, align 4
  br label %11

11:                                               ; preds = %255, %0
  %12 = load i32, i32* %2, align 4
  %13 = load i32, i32* %1, align 4
  %14 = icmp slt i32 %12, %13
  br i1 %14, label %15, label %258

15:                                               ; preds = %11
  %16 = getelementptr inbounds [100 x i8], [100 x i8]* %6, i64 0, i64 0
  %17 = getelementptr inbounds [100 x i8], [100 x i8]* %7, i64 0, i64 0
  %18 = call i32 (i8*, ...) @__isoc99_scanf(i8* getelementptr inbounds ([6 x i8], [6 x i8]* @.str.1, i64 0, i64 0), i8* %16, i8* %17)
  %19 = getelementptr inbounds [100 x i8], [100 x i8]* %6, i64 0, i64 0
  %20 = call i64 @strlen(i8* %19) #3
  %21 = trunc i64 %20 to i32
  store i32 %21, i32* %4, align 4
  %22 = getelementptr inbounds [100 x i8], [100 x i8]* %7, i64 0, i64 0
  %23 = call i64 @strlen(i8* %22) #3
  %24 = trunc i64 %23 to i32
  store i32 %24, i32* %5, align 4
  store i32 0, i32* %3, align 4
  br label %25

25:                                               ; preds = %53, %15
  %26 = load i32, i32* %3, align 4
  %27 = load i32, i32* %4, align 4
  %28 = sdiv i32 %27, 2
  %29 = sub nsw i32 %28, 1
  %30 = icmp sle i32 %26, %29
  br i1 %30, label %31, label %56

31:                                               ; preds = %25
  %32 = load i32, i32* %3, align 4
  %33 = sext i32 %32 to i64
  %34 = getelementptr inbounds [100 x i8], [100 x i8]* %6, i64 0, i64 %33
  %35 = load i8, i8* %34, align 1
  store i8 %35, i8* %9, align 1
  %36 = load i32, i32* %4, align 4
  %37 = sub nsw i32 %36, 1
  %38 = load i32, i32* %3, align 4
  %39 = sub nsw i32 %37, %38
  %40 = sext i32 %39 to i64
  %41 = getelementptr inbounds [100 x i8], [100 x i8]* %6, i64 0, i64 %40
  %42 = load i8, i8* %41, align 1
  %43 = load i32, i32* %3, align 4
  %44 = sext i32 %43 to i64
  %45 = getelementptr inbounds [100 x i8], [100 x i8]* %6, i64 0, i64 %44
  store i8 %42, i8* %45, align 1
  %46 = load i8, i8* %9, align 1
  %47 = load i32, i32* %4, align 4
  %48 = sub nsw i32 %47, 1
  %49 = load i32, i32* %3, align 4
  %50 = sub nsw i32 %48, %49
  %51 = sext i32 %50 to i64
  %52 = getelementptr inbounds [100 x i8], [100 x i8]* %6, i64 0, i64 %51
  store i8 %46, i8* %52, align 1
  br label %53

53:                                               ; preds = %31
  %54 = load i32, i32* %3, align 4
  %55 = add nsw i32 %54, 1
  store i32 %55, i32* %3, align 4
  br label %25

56:                                               ; preds = %25
  store i32 0, i32* %3, align 4
  br label %57

57:                                               ; preds = %85, %56
  %58 = load i32, i32* %3, align 4
  %59 = load i32, i32* %5, align 4
  %60 = sdiv i32 %59, 2
  %61 = sub nsw i32 %60, 1
  %62 = icmp sle i32 %58, %61
  br i1 %62, label %63, label %88

63:                                               ; preds = %57
  %64 = load i32, i32* %3, align 4
  %65 = sext i32 %64 to i64
  %66 = getelementptr inbounds [100 x i8], [100 x i8]* %7, i64 0, i64 %65
  %67 = load i8, i8* %66, align 1
  store i8 %67, i8* %9, align 1
  %68 = load i32, i32* %5, align 4
  %69 = sub nsw i32 %68, 1
  %70 = load i32, i32* %3, align 4
  %71 = sub nsw i32 %69, %70
  %72 = sext i32 %71 to i64
  %73 = getelementptr inbounds [100 x i8], [100 x i8]* %7, i64 0, i64 %72
  %74 = load i8, i8* %73, align 1
  %75 = load i32, i32* %3, align 4
  %76 = sext i32 %75 to i64
  %77 = getelementptr inbounds [100 x i8], [100 x i8]* %7, i64 0, i64 %76
  store i8 %74, i8* %77, align 1
  %78 = load i8, i8* %9, align 1
  %79 = load i32, i32* %5, align 4
  %80 = sub nsw i32 %79, 1
  %81 = load i32, i32* %3, align 4
  %82 = sub nsw i32 %80, %81
  %83 = sext i32 %82 to i64
  %84 = getelementptr inbounds [100 x i8], [100 x i8]* %7, i64 0, i64 %83
  store i8 %78, i8* %84, align 1
  br label %85

85:                                               ; preds = %63
  %86 = load i32, i32* %3, align 4
  %87 = add nsw i32 %86, 1
  store i32 %87, i32* %3, align 4
  br label %57

88:                                               ; preds = %57
  store i32 0, i32* %3, align 4
  br label %89

89:                                               ; preds = %153, %88
  %90 = load i32, i32* %3, align 4
  %91 = load i32, i32* %5, align 4
  %92 = icmp slt i32 %90, %91
  br i1 %92, label %93, label %156

93:                                               ; preds = %89
  %94 = load i32, i32* %3, align 4
  %95 = sext i32 %94 to i64
  %96 = getelementptr inbounds [100 x i8], [100 x i8]* %6, i64 0, i64 %95
  %97 = load i8, i8* %96, align 1
  %98 = sext i8 %97 to i32
  %99 = load i32, i32* %3, align 4
  %100 = sext i32 %99 to i64
  %101 = getelementptr inbounds [100 x i8], [100 x i8]* %7, i64 0, i64 %100
  %102 = load i8, i8* %101, align 1
  %103 = sext i8 %102 to i32
  %104 = icmp sge i32 %98, %103
  br i1 %104, label %105, label %122

105:                                              ; preds = %93
  %106 = load i32, i32* %3, align 4
  %107 = sext i32 %106 to i64
  %108 = getelementptr inbounds [100 x i8], [100 x i8]* %6, i64 0, i64 %107
  %109 = load i8, i8* %108, align 1
  %110 = sext i8 %109 to i32
  %111 = load i32, i32* %3, align 4
  %112 = sext i32 %111 to i64
  %113 = getelementptr inbounds [100 x i8], [100 x i8]* %7, i64 0, i64 %112
  %114 = load i8, i8* %113, align 1
  %115 = sext i8 %114 to i32
  %116 = sub nsw i32 %110, %115
  %117 = add nsw i32 %116, 48
  %118 = trunc i32 %117 to i8
  %119 = load i32, i32* %3, align 4
  %120 = sext i32 %119 to i64
  %121 = getelementptr inbounds [100 x i8], [100 x i8]* %8, i64 0, i64 %120
  store i8 %118, i8* %121, align 1
  br label %152

122:                                              ; preds = %93
  %123 = load i32, i32* %3, align 4
  %124 = sext i32 %123 to i64
  %125 = getelementptr inbounds [100 x i8], [100 x i8]* %6, i64 0, i64 %124
  %126 = load i8, i8* %125, align 1
  %127 = sext i8 %126 to i32
  %128 = add nsw i32 %127, 10
  %129 = load i32, i32* %3, align 4
  %130 = sext i32 %129 to i64
  %131 = getelementptr inbounds [100 x i8], [100 x i8]* %7, i64 0, i64 %130
  %132 = load i8, i8* %131, align 1
  %133 = sext i8 %132 to i32
  %134 = sub nsw i32 %128, %133
  %135 = add nsw i32 %134, 48
  %136 = trunc i32 %135 to i8
  %137 = load i32, i32* %3, align 4
  %138 = sext i32 %137 to i64
  %139 = getelementptr inbounds [100 x i8], [100 x i8]* %8, i64 0, i64 %138
  store i8 %136, i8* %139, align 1
  %140 = load i32, i32* %3, align 4
  %141 = add nsw i32 %140, 1
  %142 = sext i32 %141 to i64
  %143 = getelementptr inbounds [100 x i8], [100 x i8]* %6, i64 0, i64 %142
  %144 = load i8, i8* %143, align 1
  %145 = sext i8 %144 to i32
  %146 = sub nsw i32 %145, 1
  %147 = trunc i32 %146 to i8
  %148 = load i32, i32* %3, align 4
  %149 = add nsw i32 %148, 1
  %150 = sext i32 %149 to i64
  %151 = getelementptr inbounds [100 x i8], [100 x i8]* %6, i64 0, i64 %150
  store i8 %147, i8* %151, align 1
  br label %152

152:                                              ; preds = %122, %105
  br label %153

153:                                              ; preds = %152
  %154 = load i32, i32* %3, align 4
  %155 = add nsw i32 %154, 1
  store i32 %155, i32* %3, align 4
  br label %89

156:                                              ; preds = %89
  %157 = load i32, i32* %5, align 4
  store i32 %157, i32* %3, align 4
  br label %158

158:                                              ; preds = %170, %156
  %159 = load i32, i32* %3, align 4
  %160 = load i32, i32* %4, align 4
  %161 = icmp slt i32 %159, %160
  br i1 %161, label %162, label %173

162:                                              ; preds = %158
  %163 = load i32, i32* %3, align 4
  %164 = sext i32 %163 to i64
  %165 = getelementptr inbounds [100 x i8], [100 x i8]* %6, i64 0, i64 %164
  %166 = load i8, i8* %165, align 1
  %167 = load i32, i32* %3, align 4
  %168 = sext i32 %167 to i64
  %169 = getelementptr inbounds [100 x i8], [100 x i8]* %8, i64 0, i64 %168
  store i8 %166, i8* %169, align 1
  br label %170

170:                                              ; preds = %162
  %171 = load i32, i32* %3, align 4
  %172 = add nsw i32 %171, 1
  store i32 %172, i32* %3, align 4
  br label %158

173:                                              ; preds = %158
  %174 = load i32, i32* %4, align 4
  store i32 %174, i32* %3, align 4
  br label %175

175:                                              ; preds = %182, %173
  %176 = load i32, i32* %3, align 4
  %177 = icmp slt i32 %176, 100
  br i1 %177, label %178, label %185

178:                                              ; preds = %175
  %179 = load i32, i32* %3, align 4
  %180 = sext i32 %179 to i64
  %181 = getelementptr inbounds [100 x i8], [100 x i8]* %8, i64 0, i64 %180
  store i8 0, i8* %181, align 1
  br label %182

182:                                              ; preds = %178
  %183 = load i32, i32* %3, align 4
  %184 = add nsw i32 %183, 1
  store i32 %184, i32* %3, align 4
  br label %175

185:                                              ; preds = %175
  store i32 0, i32* %3, align 4
  br label %186

186:                                              ; preds = %214, %185
  %187 = load i32, i32* %3, align 4
  %188 = load i32, i32* %4, align 4
  %189 = sdiv i32 %188, 2
  %190 = sub nsw i32 %189, 1
  %191 = icmp sle i32 %187, %190
  br i1 %191, label %192, label %217

192:                                              ; preds = %186
  %193 = load i32, i32* %3, align 4
  %194 = sext i32 %193 to i64
  %195 = getelementptr inbounds [100 x i8], [100 x i8]* %8, i64 0, i64 %194
  %196 = load i8, i8* %195, align 1
  store i8 %196, i8* %9, align 1
  %197 = load i32, i32* %4, align 4
  %198 = sub nsw i32 %197, 1
  %199 = load i32, i32* %3, align 4
  %200 = sub nsw i32 %198, %199
  %201 = sext i32 %200 to i64
  %202 = getelementptr inbounds [100 x i8], [100 x i8]* %8, i64 0, i64 %201
  %203 = load i8, i8* %202, align 1
  %204 = load i32, i32* %3, align 4
  %205 = sext i32 %204 to i64
  %206 = getelementptr inbounds [100 x i8], [100 x i8]* %8, i64 0, i64 %205
  store i8 %203, i8* %206, align 1
  %207 = load i8, i8* %9, align 1
  %208 = load i32, i32* %4, align 4
  %209 = sub nsw i32 %208, 1
  %210 = load i32, i32* %3, align 4
  %211 = sub nsw i32 %209, %210
  %212 = sext i32 %211 to i64
  %213 = getelementptr inbounds [100 x i8], [100 x i8]* %8, i64 0, i64 %212
  store i8 %207, i8* %213, align 1
  br label %214

214:                                              ; preds = %192
  %215 = load i32, i32* %3, align 4
  %216 = add nsw i32 %215, 1
  store i32 %216, i32* %3, align 4
  br label %186

217:                                              ; preds = %186
  store i32 0, i32* %3, align 4
  br label %218

218:                                              ; preds = %233, %217
  %219 = load i32, i32* %3, align 4
  %220 = sext i32 %219 to i64
  %221 = getelementptr inbounds [100 x i8], [100 x i8]* %8, i64 0, i64 0
  %222 = call i64 @strlen(i8* %221) #3
  %223 = icmp ult i64 %220, %222
  br i1 %223, label %224, label %236

224:                                              ; preds = %218
  %225 = load i32, i32* %3, align 4
  %226 = sext i32 %225 to i64
  %227 = getelementptr inbounds [100 x i8], [100 x i8]* %8, i64 0, i64 %226
  %228 = load i8, i8* %227, align 1
  %229 = sext i8 %228 to i32
  %230 = icmp ne i32 %229, 48
  br i1 %230, label %231, label %232

231:                                              ; preds = %224
  br label %236

232:                                              ; preds = %224
  br label %233

233:                                              ; preds = %232
  %234 = load i32, i32* %3, align 4
  %235 = add nsw i32 %234, 1
  store i32 %235, i32* %3, align 4
  br label %218

236:                                              ; preds = %231, %218
  br label %237

237:                                              ; preds = %250, %236
  %238 = load i32, i32* %3, align 4
  %239 = sext i32 %238 to i64
  %240 = getelementptr inbounds [100 x i8], [100 x i8]* %8, i64 0, i64 0
  %241 = call i64 @strlen(i8* %240) #3
  %242 = icmp ult i64 %239, %241
  br i1 %242, label %243, label %253

243:                                              ; preds = %237
  %244 = load i32, i32* %3, align 4
  %245 = sext i32 %244 to i64
  %246 = getelementptr inbounds [100 x i8], [100 x i8]* %8, i64 0, i64 %245
  %247 = load i8, i8* %246, align 1
  %248 = sext i8 %247 to i32
  %249 = call i32 (i8*, ...) @printf(i8* getelementptr inbounds ([3 x i8], [3 x i8]* @.str.2, i64 0, i64 0), i32 %248)
  br label %250

250:                                              ; preds = %243
  %251 = load i32, i32* %3, align 4
  %252 = add nsw i32 %251, 1
  store i32 %252, i32* %3, align 4
  br label %237

253:                                              ; preds = %237
  %254 = call i32 (i8*, ...) @printf(i8* getelementptr inbounds ([2 x i8], [2 x i8]* @.str.3, i64 0, i64 0))
  br label %255

255:                                              ; preds = %253
  %256 = load i32, i32* %2, align 4
  %257 = add nsw i32 %256, 1
  store i32 %257, i32* %2, align 4
  br label %11

258:                                              ; preds = %11
  ret void
}